target datalayout = "e-m:e-p270:32:32-p271:32:32-p272:64:64-i64:64-i128:128-f80:128-n8:16:32:64-S128"
target triple = "x86_64-pc-linux-gnu"

%struct.anon.7 = type { i8, [3 x i8], i32, ptr, ptr, ptr, i32, i32, ptr, ptr, ptr, ptr, i32 }
%struct.zend_type = type { ptr, i32 }
%struct._zend_arg_info = type { ptr, %struct.zend_type, ptr }

; Function Attrs: nounwind uwtable
define void @zend_set_function_arg_flags(ptr noundef %0) #0 {
  %2 = alloca ptr, align 8
  %3 = alloca i32, align 4
  %4 = alloca i32, align 4
  %5 = alloca i32, align 4
  store ptr %0, ptr %2, align 8
  %6 = load ptr, ptr %2, align 8
  %7 = getelementptr inbounds %struct.anon.7, ptr %6, i32 0, i32 1
  %8 = getelementptr inbounds [3 x i8], ptr %7, i64 0, i64 0
  store i8 0, ptr %8, align 1
  %9 = load ptr, ptr %2, align 8
  %10 = getelementptr inbounds %struct.anon.7, ptr %9, i32 0, i32 1
  %11 = getelementptr inbounds [3 x i8], ptr %10, i64 0, i64 1
  store i8 0, ptr %11, align 1
  %12 = load ptr, ptr %2, align 8
  %13 = getelementptr inbounds %struct.anon.7, ptr %12, i32 0, i32 1
  %14 = getelementptr inbounds [3 x i8], ptr %13, i64 0, i64 2
  store i8 0, ptr %14, align 1
  %15 = load ptr, ptr %2, align 8
  %16 = getelementptr inbounds %struct.anon.7, ptr %15, i32 0, i32 8
  %17 = load ptr, ptr %16, align 8
  %18 = icmp ne ptr %17, null
  br i1 %18, label %19, label %116

19:                                               ; preds = %1
  %20 = load ptr, ptr %2, align 8
  %21 = getelementptr inbounds %struct.anon.7, ptr %20, i32 0, i32 6
  %22 = load i32, ptr %21, align 8
  %23 = icmp ult i32 %22, 12
  br i1 %23, label %24, label %28

24:                                               ; preds = %19
  %25 = load ptr, ptr %2, align 8
  %26 = getelementptr inbounds %struct.anon.7, ptr %25, i32 0, i32 6
  %27 = load i32, ptr %26, align 8
  br label %29

28:                                               ; preds = %19
  br label %29

29:                                               ; preds = %28, %24
  %30 = phi i32 [ %27, %24 ], [ 12, %28 ]
  store i32 %30, ptr %4, align 4
  store i32 0, ptr %3, align 4
  br label %31

31:                                               ; preds = %56, %29
  %32 = load i32, ptr %3, align 4
  %33 = load i32, ptr %4, align 4
  %34 = icmp ult i32 %32, %33
  br i1 %34, label %35, label %59

35:                                               ; preds = %31
  br label %36

36:                                               ; preds = %35
  %37 = load ptr, ptr %2, align 8
  %38 = getelementptr inbounds %struct.anon.7, ptr %37, i32 0, i32 8
  %39 = load ptr, ptr %38, align 8
  %40 = load i32, ptr %3, align 4
  %41 = zext i32 %40 to i64
  %42 = getelementptr inbounds %struct._zend_arg_info, ptr %39, i64 %41
  %43 = getelementptr inbounds %struct._zend_arg_info, ptr %42, i32 0, i32 1
  %44 = getelementptr inbounds %struct.zend_type, ptr %43, i32 0, i32 1
  %45 = load i32, ptr %44, align 8
  %46 = lshr i32 %45, 25
  %47 = and i32 %46, 3
  %48 = shl i32 %47, 6
  %49 = load i32, ptr %3, align 4
  %50 = add i32 %49, 1
  %51 = mul i32 %50, 2
  %52 = shl i32 %48, %51
  %53 = load ptr, ptr %2, align 8
  %54 = load i32, ptr %53, align 8
  %55 = or i32 %54, %52
  store i32 %55, ptr %53, align 8
  br label %56

56:                                               ; preds = %36
  %57 = load i32, ptr %3, align 4
  %58 = add i32 %57, 1
  store i32 %58, ptr %3, align 4
  br label %31

59:                                               ; preds = %31
  %60 = load ptr, ptr %2, align 8
  %61 = getelementptr inbounds %struct.anon.7, ptr %60, i32 0, i32 2
  %62 = load i32, ptr %61, align 4
  %63 = and i32 %62, 16384
  %64 = icmp ne i32 %63, 0
  br i1 %64, label %65, label %78

65:                                               ; preds = %59
  %66 = load ptr, ptr %2, align 8
  %67 = getelementptr inbounds %struct.anon.7, ptr %66, i32 0, i32 8
  %68 = load ptr, ptr %67, align 8
  %69 = load i32, ptr %3, align 4
  %70 = zext i32 %69 to i64
  %71 = getelementptr inbounds %struct._zend_arg_info, ptr %68, i64 %70
  %72 = getelementptr inbounds %struct._zend_arg_info, ptr %71, i32 0, i32 1
  %73 = getelementptr inbounds %struct.zend_type, ptr %72, i32 0, i32 1
  %74 = load i32, ptr %73, align 8
  %75 = lshr i32 %74, 25
  %76 = and i32 %75, 3
  %77 = icmp ne i32 %76, 0
  br label %78

78:                                               ; preds = %65, %59
  %79 = phi i1 [ false, %59 ], [ %77, %65 ]
  %80 = xor i1 %79, true
  %81 = xor i1 %80, true
  %82 = zext i1 %81 to i32
  %83 = sext i32 %82 to i64
  %84 = icmp ne i64 %83, 0
  br i1 %84, label %85, label %115

85:                                               ; preds = %78
  %86 = load ptr, ptr %2, align 8
  %87 = getelementptr inbounds %struct.anon.7, ptr %86, i32 0, i32 8
  %88 = load ptr, ptr %87, align 8
  %89 = load i32, ptr %3, align 4
  %90 = zext i32 %89 to i64
  %91 = getelementptr inbounds %struct._zend_arg_info, ptr %88, i64 %90
  %92 = getelementptr inbounds %struct._zend_arg_info, ptr %91, i32 0, i32 1
  %93 = getelementptr inbounds %struct.zend_type, ptr %92, i32 0, i32 1
  %94 = load i32, ptr %93, align 8
  %95 = lshr i32 %94, 25
  %96 = and i32 %95, 3
  store i32 %96, ptr %5, align 4
  br label %97

97:                                               ; preds = %111, %85
  %98 = load i32, ptr %3, align 4
  %99 = icmp ult i32 %98, 12
  br i1 %99, label %100, label %114

100:                                              ; preds = %97
  br label %101

101:                                              ; preds = %100
  %102 = load i32, ptr %5, align 4
  %103 = shl i32 %102, 6
  %104 = load i32, ptr %3, align 4
  %105 = add i32 %104, 1
  %106 = mul i32 %105, 2
  %107 = shl i32 %103, %106
  %108 = load ptr, ptr %2, align 8
  %109 = load i32, ptr %108, align 8
  %110 = or i32 %109, %107
  store i32 %110, ptr %108, align 8
  br label %111

111:                                              ; preds = %101
  %112 = load i32, ptr %3, align 4
  %113 = add i32 %112, 1
  store i32 %113, ptr %3, align 4
  br label %97

114:                                              ; preds = %97
  br label %115

115:                                              ; preds = %114, %78
  br label %116

116:                                              ; preds = %115, %1
  ret void
}