; Function Attrs: nofree norecurse nosync nounwind memory(read, argmem: readwrite, inaccessiblemem: none) uwtable
define void @zend_set_function_arg_flags(ptr nocapture noundef %0) local_unnamed_addr #15 {
  %2 = getelementptr inbounds i8, ptr %0, i64 1
  store i8 0, ptr %2, align 1
  %3 = getelementptr inbounds i8, ptr %0, i64 2
  store i8 0, ptr %3, align 1
  %4 = getelementptr inbounds i8, ptr %0, i64 3
  store i8 0, ptr %4, align 1
  %5 = getelementptr inbounds i8, ptr %0, i64 40
  %6 = load ptr, ptr %5, align 8
  %.not = icmp eq ptr %6, null
  br i1 %.not, label %.critedge, label %7

7:                                                ; preds = %1
  %8 = getelementptr inbounds i8, ptr %0, i64 32
  %9 = load i32, ptr %8, align 8
  %spec.select = tail call i32 @llvm.umin.i32(i32 %9, i32 12)
  %.not29 = icmp eq i32 %9, 0
  br i1 %.not29, label %._crit_edge, label %.lr.ph

.lr.ph:                                           ; preds = %7
  %.promoted = load i32, ptr %0, align 8
  %wide.trip.count = zext nneg i32 %spec.select to i64
  br label %10

10:                                               ; preds = %.lr.ph, %10
  %indvars.iv = phi i64 [ 0, %.lr.ph ], [ %indvars.iv.next, %10 ]
  %11 = phi i32 [ %.promoted, %.lr.ph ], [ %18, %10 ]
  %12 = getelementptr inbounds %struct._zend_arg_info, ptr %6, i64 %indvars.iv, i32 1, i32 1
  %13 = load i32, ptr %12, align 8
  %14 = lshr i32 %13, 19
  %15 = and i32 %14, 192
  %indvars.iv.next = add nuw nsw i64 %indvars.iv, 1
  %indvars.iv.next.tr = trunc i64 %indvars.iv.next to i32
  %16 = shl i32 %indvars.iv.next.tr, 1
  %17 = shl nuw i32 %15, %16
  %18 = or i32 %17, %11
  store i32 %18, ptr %0, align 8
  %exitcond.not = icmp eq i64 %indvars.iv.next, %wide.trip.count
  br i1 %exitcond.not, label %._crit_edge, label %10

._crit_edge:                                      ; preds = %10, %7
  %.0.lcssa = phi i32 [ 0, %7 ], [ %spec.select, %10 ]
  %19 = getelementptr inbounds i8, ptr %0, i64 4
  %20 = load i32, ptr %19, align 4
  %21 = and i32 %20, 16384
  %.not23 = icmp eq i32 %21, 0
  br i1 %.not23, label %.critedge, label %22

22:                                               ; preds = %._crit_edge
  %23 = zext nneg i32 %.0.lcssa to i64
  %24 = getelementptr inbounds %struct._zend_arg_info, ptr %6, i64 %23, i32 1, i32 1
  %25 = load i32, ptr %24, align 8
  %26 = and i32 %25, 100663296
  %.not24 = icmp ne i32 %26, 0
  %27 = icmp ult i32 %.0.lcssa, 12
  %or.cond = and i1 %.not24, %27
  br i1 %or.cond, label %.lr.ph27, label %.critedge

.lr.ph27:                                         ; preds = %22
  %28 = lshr i32 %25, 19
  %29 = and i32 %28, 192
  %.promoted28 = load i32, ptr %0, align 8
  br label %30

30:                                               ; preds = %.lr.ph27, %30
  %31 = phi i32 [ %.promoted28, %.lr.ph27 ], [ %35, %30 ]
  %.126 = phi i32 [ %.0.lcssa, %.lr.ph27 ], [ %32, %30 ]
  %32 = add nuw nsw i32 %.126, 1
  %33 = shl nuw nsw i32 %32, 1
  %34 = shl nuw i32 %29, %33
  %35 = or i32 %31, %34
  %exitcond32.not = icmp eq i32 %32, 12
  br i1 %exitcond32.not, label %..critedge.loopexit_crit_edge, label %30

..critedge.loopexit_crit_edge:                    ; preds = %30
  store i32 %35, ptr %0, align 8
  br label %.critedge

.critedge:                                        ; preds = %..critedge.loopexit_crit_edge, %._crit_edge, %22, %1
  ret void
}